; Function Attrs: nounwind uwtable
define internal noundef i32 @parse(ptr noundef captures(none) %0, ptr noundef %1, ptr noundef writeonly captures(none) initializes((0, 8)) %2, ptr noundef writeonly captures(none) initializes((0, 4)) %3, ptr noundef %4, i32 noundef returned %5) #1 {
  %7 = alloca ptr, align 8
  %8 = load ptr, ptr %0, align 8, !tbaa !4
  %9 = getelementptr inbounds nuw i8, ptr %8, i64 8
  call void @llvm.lifetime.start.p0(i64 8, ptr nonnull %7) #5
  store ptr %4, ptr %2, align 8, !tbaa !24
  store i32 %5, ptr %3, align 4, !tbaa !25
  %10 = sext i32 %5 to i64
  %11 = tail call ptr @av_buffer_create(ptr noundef %4, i64 noundef %10, ptr noundef nonnull @dummy_free, ptr noundef %4, i32 noundef 1) #5
  store ptr %11, ptr %7, align 8, !tbaa !26
  %.not = icmp eq ptr %11, null
  br i1 %.not, label %80, label %12

12:                                               ; preds = %6
  %13 = load ptr, ptr %8, align 8, !tbaa !12
  store ptr %1, ptr %13, align 8, !tbaa !27
  %14 = tail call i32 @ff_cbs_read(ptr noundef nonnull %13, ptr noundef nonnull %9, ptr noundef nonnull %11, ptr noundef %4, i64 noundef %10) #5
  %15 = icmp slt i32 %14, 0
  br i1 %15, label %16, label %17

16:                                               ; preds = %12
  tail call void (ptr, i32, ptr, ...) @av_log(ptr noundef %1, i32 noundef 16, ptr noundef nonnull @.str) #5
  br label %.loopexit

17:                                               ; preds = %12
  %18 = getelementptr inbounds nuw i8, ptr %0, i64 232
  store i32 1, ptr %18, align 8, !tbaa !28
  %19 = getelementptr inbounds nuw i8, ptr %0, i64 40
  store i32 1, ptr %19, align 8, !tbaa !29
  %20 = getelementptr inbounds nuw i8, ptr %0, i64 300
  store i32 0, ptr %20, align 4, !tbaa !30
  %21 = getelementptr inbounds nuw i8, ptr %0, i64 304
  store i32 3, ptr %21, align 8, !tbaa !31
  %22 = getelementptr inbounds nuw i8, ptr %8, i64 40
  %23 = load i32, ptr %22, align 8, !tbaa !32
  %24 = icmp sgt i32 %23, 0
  br i1 %24, label %.lr.ph, label %.loopexit

.lr.ph:                                           ; preds = %17
  %25 = getelementptr inbounds nuw i8, ptr %8, i64 48
  %26 = load ptr, ptr %25, align 8, !tbaa !33
  %wide.trip.count = zext nneg i32 %23 to i64
  br label %27

27:                                               ; preds = %.lr.ph, %.thread
  %indvars.iv = phi i64 [ 0, %.lr.ph ], [ %indvars.iv.next, %.thread ]
  %28 = getelementptr inbounds nuw %struct.CodedBitstreamUnit, ptr %26, i64 %indvars.iv
  %29 = load i32, ptr %28, align 8, !tbaa !34
  %cond = icmp eq i32 %29, 1
  br i1 %cond, label %30, label %.thread

30:                                               ; preds = %27
  %31 = getelementptr inbounds nuw i8, ptr %28, i64 40
  %32 = load ptr, ptr %31, align 8, !tbaa !36
  %33 = getelementptr inbounds nuw i8, ptr %32, i64 21
  %34 = load i8, ptr %33, align 1, !tbaa !37
  %35 = zext i8 %34 to i32
  %36 = icmp ult i8 %34, 9
  %37 = and i32 %35, 1
  %.not66 = icmp eq i32 %37, 0
  %or.cond = and i1 %36, %.not66
  br i1 %or.cond, label %38, label %.thread

38:                                               ; preds = %30
  %39 = getelementptr inbounds nuw i8, ptr %32, i64 8
  %40 = getelementptr inbounds nuw i8, ptr %32, i64 12
  %41 = load i32, ptr %40, align 4, !tbaa !39
  %42 = getelementptr inbounds nuw i8, ptr %0, i64 312
  store i32 %41, ptr %42, align 8, !tbaa !40
  %43 = getelementptr inbounds nuw i8, ptr %32, i64 16
  %44 = load i32, ptr %43, align 4, !tbaa !41
  %45 = getelementptr inbounds nuw i8, ptr %0, i64 316
  store i32 %44, ptr %45, align 4, !tbaa !42
  %46 = getelementptr inbounds nuw i8, ptr %32, i64 20
  %47 = load i8, ptr %46, align 4, !tbaa !43
  %48 = zext i8 %47 to i64
  %49 = add nuw nsw i32 %35, 4
  %50 = lshr i32 %49, 2
  %51 = zext nneg i32 %50 to i64
  %52 = getelementptr inbounds nuw [5 x [5 x i32]], ptr @apv_format_table, i64 0, i64 %48, i64 %51
  %53 = load i32, ptr %52, align 4, !tbaa !25
  %54 = getelementptr inbounds nuw i8, ptr %0, i64 328
  store i32 %53, ptr %54, align 8, !tbaa !44
  %55 = load i8, ptr %39, align 4, !tbaa !45
  %56 = zext i8 %55 to i32
  %57 = getelementptr inbounds nuw i8, ptr %1, i64 688
  store i32 %56, ptr %57, align 8, !tbaa !46
  %58 = getelementptr inbounds nuw i8, ptr %32, i64 9
  %59 = load i8, ptr %58, align 1, !tbaa !61
  %60 = zext i8 %59 to i32
  %61 = getelementptr inbounds nuw i8, ptr %1, i64 692
  store i32 %60, ptr %61, align 4, !tbaa !62
  %62 = getelementptr inbounds nuw i8, ptr %1, i64 160
  store i32 3, ptr %62, align 8, !tbaa !63
  %63 = getelementptr inbounds nuw i8, ptr %32, i64 26
  %64 = load i8, ptr %63, align 2, !tbaa !64
  %65 = zext i8 %64 to i32
  %66 = getelementptr inbounds nuw i8, ptr %1, i64 144
  store i32 %65, ptr %66, align 8, !tbaa !68
  %67 = getelementptr inbounds nuw i8, ptr %32, i64 27
  %68 = load i8, ptr %67, align 1, !tbaa !69
  %69 = zext i8 %68 to i32
  %70 = getelementptr inbounds nuw i8, ptr %1, i64 148
  store i32 %69, ptr %70, align 4, !tbaa !70
  %71 = getelementptr inbounds nuw i8, ptr %32, i64 28
  %72 = load i8, ptr %71, align 4, !tbaa !71
  %73 = zext i8 %72 to i32
  %74 = getelementptr inbounds nuw i8, ptr %1, i64 152
  store i32 %73, ptr %74, align 8, !tbaa !72
  %75 = getelementptr inbounds nuw i8, ptr %32, i64 29
  %76 = load i8, ptr %75, align 1, !tbaa !73
  %.not67 = icmp eq i8 %76, 0
  %77 = select i1 %.not67, i32 1, i32 2
  %78 = getelementptr inbounds nuw i8, ptr %1, i64 156
  store i32 %77, ptr %78, align 4, !tbaa !74
  br label %.loopexit

.thread:                                          ; preds = %30, %27
  %indvars.iv.next = add nuw nsw i64 %indvars.iv, 1
  %exitcond.not = icmp eq i64 %indvars.iv.next, %wide.trip.count
  br i1 %exitcond.not, label %.loopexit, label %27, !llvm.loop !75

.loopexit:                                        ; preds = %.thread, %17, %38, %16
  tail call void @ff_cbs_fragment_reset(ptr noundef nonnull %9) #5
  call void @av_buffer_unref(ptr noundef nonnull %7) #5
  %79 = load ptr, ptr %8, align 8, !tbaa !12
  store ptr null, ptr %79, align 8, !tbaa !27
  br label %80

80:                                               ; preds = %6, %.loopexit
  call void @llvm.lifetime.end.p0(i64 8, ptr nonnull %7) #5
  ret i32 %5
}